; Function Attrs: mustprogress nofree norecurse nosync nounwind willreturn memory(write, argmem: readwrite, inaccessiblemem: none) uwtable
define dso_local void @lua_pushboolean(ptr noundef captures(none) %0, i32 noundef %1) local_unnamed_addr #0 {
  %3 = getelementptr inbounds nuw i8, ptr %0, i64 16
  %4 = load ptr, ptr %3, align 8, !tbaa !4
  %5 = icmp ne i32 %1, 0
  %6 = zext i1 %5 to i32
  store i32 %6, ptr %4, align 8, !tbaa !19
  %7 = getelementptr inbounds nuw i8, ptr %4, i64 8
  store i32 1, ptr %7, align 8, !tbaa !20
  %8 = load ptr, ptr %3, align 8, !tbaa !4
  %9 = getelementptr inbounds nuw i8, ptr %8, i64 16
  store ptr %9, ptr %3, align 8, !tbaa !4
  ret void
}